; Function Attrs: nofree nounwind uwtable
define dso_local noundef i32 @openDirectLogFiledes() local_unnamed_addr #15 {
entry:
  %0 = load ptr, ptr getelementptr inbounds (%struct.redisServer, ptr @server, i64 0, i32 250), align 8
  %1 = load i8, ptr %0, align 1
  %cmp = icmp eq i8 %1, 0
  br i1 %cmp, label %cond.end, label %cond.false

cond.false:                                       ; preds = %entry
  %call = tail call i32 (ptr, i32, ...) @open64(ptr noundef nonnull %0, i32 noundef 1089, i32 noundef 420) #22
  br label %cond.end

cond.end:                                         ; preds = %entry, %cond.false
  %cond = phi i32 [ %call, %cond.false ], [ 1, %entry ]
  ret i32 %cond
}